; Function Attrs: mustprogress nounwind sspstrong willreturn uwtable
define void @_ZN4FLAC8Metadata13VorbisComment5Entry11clear_entryEv(ptr nocapture noundef nonnull align 8 dereferenceable(60) %this) local_unnamed_addr #14 align 2 {
entry:
  %entry2 = getelementptr inbounds i8, ptr %this, i64 24
  %0 = load ptr, ptr %entry2, align 8
  %cmp.not = icmp eq ptr %0, null
  br i1 %cmp.not, label %if.end, label %if.then

if.then:                                          ; preds = %entry
  %entry_ = getelementptr inbounds i8, ptr %this, i64 16
  tail call void @free(ptr noundef nonnull %0) #20
  store ptr null, ptr %entry2, align 8
  store i32 0, ptr %entry_, align 8
  br label %if.end

if.end:                                           ; preds = %if.then, %entry
  ret void
}